target datalayout = "e-m:e-p270:32:32-p271:32:32-p272:64:64-i64:64-i128:128-f80:128-n8:16:32:64-S128"
target triple = "x86_64-pc-linux-gnu"

%class.InstanceKlass = type { %class.Klass.base, ptr, ptr, ptr, ptr, ptr, ptr, ptr, ptr, ptr, ptr, i32, i32, i32, i32, i16, i16, i16, i16, i8, i8, i8, i8, %class.InstanceKlassFlags, ptr, ptr, ptr, ptr, ptr, i64, ptr, ptr, ptr, ptr, ptr, ptr, ptr, ptr, ptr, ptr, ptr, ptr, ptr }
%class.Klass.base = type <{ %class.Metadata, i32, i32, i32, i32, ptr, ptr, ptr, [8 x ptr], %class.OopHandle, ptr, ptr, ptr, ptr, ptr, i32, %class.AccessFlags, i64, i64, i8, i8, i16, i16, [2 x i8], i32 }>
%class.Metadata = type { ptr }
%class.OopHandle = type { ptr }
%class.AccessFlags = type { i32 }
%class.InstanceKlassFlags = type <{ i16, i8, i8 }>
%class.Handle = type { ptr }
%class.ThreadShadow = type <{ ptr, ptr, ptr, i32, [4 x i8] }>
%class.Klass = type <{ %class.Metadata, i32, i32, i32, i32, ptr, ptr, ptr, [8 x ptr], %class.OopHandle, ptr, ptr, ptr, ptr, ptr, i32, %class.AccessFlags, i64, i64, i8, i8, i16, i16, [2 x i8], i32, [4 x i8] }>
%class.Array = type { i32, [1 x ptr] }
%class.ClassLoaderData = type { %class.WeakHandle, %class.OopHandle, ptr, ptr, i8, i8, i8, i32, i32, %"class.ClassLoaderData::ChunkedHandleList", ptr, ptr, ptr, ptr, ptr, ptr, ptr, ptr, ptr, ptr, ptr, ptr, i64 }
%class.WeakHandle = type { ptr }
%"class.ClassLoaderData::ChunkedHandleList" = type { ptr }
%class.anon = type { i8 }

; Function Attrs: mustprogress nounwind uwtable
define linkonce_odr hidden noundef i64 @_ZZN5ArrayIP13InstanceKlassE20base_offset_in_bytesEvENKUlvE_clEv(ptr noundef nonnull align 1 dereferenceable(1) %0) #1 comdat align 2 {
  %2 = alloca ptr, align 8
  %3 = alloca [16 x i8], align 16
  %4 = alloca ptr, align 8
  %5 = alloca ptr, align 8
  store ptr %0, ptr %2, align 8
  %6 = getelementptr inbounds [16 x i8], ptr %3, i64 0, i64 0
  store ptr %6, ptr %4, align 8
  %7 = load ptr, ptr %4, align 8
  %8 = getelementptr inbounds %class.Array, ptr %7, i32 0, i32 1
  store ptr %8, ptr %5, align 8
  %9 = load ptr, ptr %5, align 8
  %10 = getelementptr inbounds [16 x i8], ptr %3, i64 0, i64 0
  %11 = ptrtoint ptr %9 to i64
  %12 = ptrtoint ptr %10 to i64
  %13 = sub i64 %11, %12
  ret i64 %13
}

; Function Attrs: mustprogress nounwind uwtable
define linkonce_odr hidden noundef i32 @_ZN5ArrayIP13InstanceKlassE20base_offset_in_bytesEv() #1 comdat align 2 {
  %1 = alloca %class.anon, align 1
  %2 = call noundef i64 @_ZZN5ArrayIP13InstanceKlassE20base_offset_in_bytesEvENKUlvE_clEv(ptr noundef nonnull align 1 dereferenceable(1) %1)
  %3 = trunc i64 %2 to i32
  ret i32 %3
}

; Function Attrs: mustprogress nounwind uwtable
define linkonce_odr hidden noundef ptr @_ZNK5ArrayIP13InstanceKlassE4dataEv(ptr noundef nonnull align 8 dereferenceable(16) %0) #1 comdat align 2 {
  %2 = alloca ptr, align 8
  store ptr %0, ptr %2, align 8
  %3 = load ptr, ptr %2, align 8
  %4 = call noundef i32 @_ZN5ArrayIP13InstanceKlassE20base_offset_in_bytesEv()
  %5 = sext i32 %4 to i64
  %6 = getelementptr inbounds i8, ptr %3, i64 %5
  ret ptr %6
}

; Function Attrs: mustprogress nounwind uwtable
define linkonce_odr hidden noundef ptr @_ZN13InstanceKlass4castEPK5Klass(ptr noundef %0) #1 comdat align 2 {
  %2 = alloca ptr, align 8
  store ptr %0, ptr %2, align 8
  %3 = load ptr, ptr %2, align 8
  ret ptr %3
}

; Function Attrs: mustprogress nounwind uwtable
define linkonce_odr hidden noundef ptr @_ZNK5Klass4nameEv(ptr noundef nonnull align 8 dereferenceable(196) %0) #1 comdat align 2 {
  %2 = alloca ptr, align 8
  store ptr %0, ptr %2, align 8
  %3 = load ptr, ptr %2, align 8
  %4 = getelementptr inbounds %class.Klass, ptr %3, i32 0, i32 5
  %5 = load ptr, ptr %4, align 8
  ret ptr %5
}

; Function Attrs: mustprogress nounwind uwtable
define linkonce_odr hidden noundef ptr @_ZNK15ClassLoaderData10dictionaryEv(ptr noundef nonnull align 8 dereferenceable(160) %0) #1 comdat align 2 {
  %2 = alloca ptr, align 8
  store ptr %0, ptr %2, align 8
  %3 = load ptr, ptr %2, align 8
  %4 = getelementptr inbounds %class.ClassLoaderData, ptr %3, i32 0, i32 14
  %5 = load ptr, ptr %4, align 8
  ret ptr %5
}

; Function Attrs: mustprogress nounwind uwtable
define linkonce_odr hidden noundef ptr @_ZNK5ArrayIP13InstanceKlassE2atEi(ptr noundef nonnull align 8 dereferenceable(16) %0, i32 noundef %1) #1 comdat align 2 {
  %3 = alloca ptr, align 8
  %4 = alloca i32, align 4
  store ptr %0, ptr %3, align 8
  store i32 %1, ptr %4, align 4
  %5 = load ptr, ptr %3, align 8
  %6 = call noundef ptr @_ZNK5ArrayIP13InstanceKlassE4dataEv(ptr noundef nonnull align 8 dereferenceable(16) %5)
  %7 = load i32, ptr %4, align 4
  %8 = sext i32 %7 to i64
  %9 = getelementptr inbounds ptr, ptr %6, i64 %8
  %10 = load ptr, ptr %9, align 8
  ret ptr %10
}

; Function Attrs: mustprogress nounwind uwtable
define linkonce_odr hidden noundef i32 @_ZNK5ArrayIP13InstanceKlassE6lengthEv(ptr noundef nonnull align 8 dereferenceable(16) %0) #1 comdat align 2 {
  %2 = alloca ptr, align 8
  store ptr %0, ptr %2, align 8
  %3 = load ptr, ptr %2, align 8
  %4 = getelementptr inbounds %class.Array, ptr %3, i32 0, i32 0
  %5 = load i32, ptr %4, align 8
  ret i32 %5
}

; Function Attrs: mustprogress nounwind uwtable
define linkonce_odr hidden noundef ptr @_ZNK13InstanceKlass16local_interfacesEv(ptr noundef nonnull align 8 dereferenceable(464) %0) #1 comdat align 2 {
  %2 = alloca ptr, align 8
  store ptr %0, ptr %2, align 8
  %3 = load ptr, ptr %2, align 8
  %4 = getelementptr inbounds %class.InstanceKlass, ptr %3, i32 0, i32 37
  %5 = load ptr, ptr %4, align 8
  ret ptr %5
}

; Function Attrs: mustprogress nounwind uwtable
define linkonce_odr hidden noundef zeroext i1 @_ZNK12ThreadShadow21has_pending_exceptionEv(ptr noundef nonnull align 8 dereferenceable(28) %0) #1 comdat align 2 {
  %2 = alloca ptr, align 8
  store ptr %0, ptr %2, align 8
  %3 = load ptr, ptr %2, align 8
  %4 = getelementptr inbounds %class.ThreadShadow, ptr %3, i32 0, i32 1
  %5 = load ptr, ptr %4, align 8
  %6 = icmp ne ptr %5, null
  ret i1 %6
}

; Function Attrs: mustprogress nounwind uwtable
define linkonce_odr hidden noundef ptr @_ZN13InstanceKlass4castEP5Klass(ptr noundef %0) #1 comdat align 2 {
  %2 = alloca ptr, align 8
  store ptr %0, ptr %2, align 8
  %3 = load ptr, ptr %2, align 8
  %4 = call noundef ptr @_ZN13InstanceKlass4castEPK5Klass(ptr noundef %3)
  ret ptr %4
}

; Function Attrs: mustprogress nounwind uwtable
define linkonce_odr hidden noundef ptr @_ZNK5Klass5superEv(ptr noundef nonnull align 8 dereferenceable(196) %0) #1 comdat align 2 {
  %2 = alloca ptr, align 8
  store ptr %0, ptr %2, align 8
  %3 = load ptr, ptr %2, align 8
  %4 = getelementptr inbounds %class.Klass, ptr %3, i32 0, i32 10
  %5 = load ptr, ptr %4, align 8
  ret ptr %5
}

; Function Attrs: mustprogress nounwind uwtable
define linkonce_odr hidden noundef ptr @_ZNK5Klass17class_loader_dataEv(ptr noundef nonnull align 8 dereferenceable(196) %0) #1 comdat align 2 {
  %2 = alloca ptr, align 8
  store ptr %0, ptr %2, align 8
  %3 = load ptr, ptr %2, align 8
  %4 = getelementptr inbounds %class.Klass, ptr %3, i32 0, i32 14
  %5 = load ptr, ptr %4, align 8
  ret ptr %5
}

; Function Attrs: mustprogress nounwind uwtable
define hidden void @_ZN9vmClasses20resolve_shared_classEP13InstanceKlassP15ClassLoaderData6HandleP10JavaThread(ptr noundef %0, ptr noundef %1, ptr %2, ptr noundef %3) #1 align 2 {
  %5 = alloca %class.Handle, align 8
  %6 = alloca ptr, align 8
  %7 = alloca ptr, align 8
  %8 = alloca ptr, align 8
  %9 = alloca ptr, align 8
  %10 = alloca %class.Handle, align 8
  %11 = alloca ptr, align 8
  %12 = alloca i32, align 4
  %13 = alloca ptr, align 8
  %14 = alloca %class.Handle, align 8
  %15 = alloca %class.Handle, align 8
  %16 = alloca ptr, align 8
  %17 = getelementptr inbounds %class.Handle, ptr %5, i32 0, i32 0
  store ptr %2, ptr %17, align 8
  store ptr %0, ptr %6, align 8
  store ptr %1, ptr %7, align 8
  store ptr %3, ptr %8, align 8
  %18 = load ptr, ptr %6, align 8
  %19 = call noundef ptr @_ZNK5Klass17class_loader_dataEv(ptr noundef nonnull align 8 dereferenceable(196) %18)
  %20 = icmp ne ptr %19, null
  br i1 %20, label %21, label %22

21:                                               ; preds = %4
  br label %88

22:                                               ; preds = %4
  %23 = load ptr, ptr %6, align 8
  %24 = call noundef ptr @_ZNK5Klass5superEv(ptr noundef nonnull align 8 dereferenceable(196) %23)
  store ptr %24, ptr %9, align 8
  %25 = load ptr, ptr %9, align 8
  %26 = icmp ne ptr %25, null
  br i1 %26, label %27, label %42

27:                                               ; preds = %22
  %28 = load ptr, ptr %9, align 8
  %29 = call noundef ptr @_ZNK5Klass17class_loader_dataEv(ptr noundef nonnull align 8 dereferenceable(196) %28)
  %30 = icmp eq ptr %29, null
  br i1 %30, label %31, label %42

31:                                               ; preds = %27
  %32 = load ptr, ptr %9, align 8
  %33 = call noundef ptr @_ZN13InstanceKlass4castEP5Klass(ptr noundef %32)
  %34 = load ptr, ptr %7, align 8
  call void @llvm.memcpy.p0.p0.i64(ptr align 8 %10, ptr align 8 %5, i64 8, i1 false)
  %35 = load ptr, ptr %8, align 8
  %36 = getelementptr inbounds %class.Handle, ptr %10, i32 0, i32 0
  %37 = load ptr, ptr %36, align 8
  call void @_ZN9vmClasses20resolve_shared_classEP13InstanceKlassP15ClassLoaderData6HandleP10JavaThread(ptr noundef %33, ptr noundef %34, ptr %37, ptr noundef %35)
  %38 = load ptr, ptr %8, align 8
  %39 = call noundef zeroext i1 @_ZNK12ThreadShadow21has_pending_exceptionEv(ptr noundef nonnull align 8 dereferenceable(28) %38)
  br i1 %39, label %40, label %41

40:                                               ; preds = %31
  br label %88

41:                                               ; preds = %31
  br label %42

42:                                               ; preds = %41, %27, %22
  %43 = load ptr, ptr %6, align 8
  %44 = call noundef ptr @_ZNK13InstanceKlass16local_interfacesEv(ptr noundef nonnull align 8 dereferenceable(464) %43)
  store ptr %44, ptr %11, align 8
  store i32 0, ptr %12, align 4
  br label %45

45:                                               ; preds = %68, %42
  %46 = load i32, ptr %12, align 4
  %47 = load ptr, ptr %11, align 8
  %48 = call noundef i32 @_ZNK5ArrayIP13InstanceKlassE6lengthEv(ptr noundef nonnull align 8 dereferenceable(16) %47)
  %49 = icmp slt i32 %46, %48
  br i1 %49, label %50, label %71

50:                                               ; preds = %45
  %51 = load ptr, ptr %11, align 8
  %52 = load i32, ptr %12, align 4
  %53 = call noundef ptr @_ZNK5ArrayIP13InstanceKlassE2atEi(ptr noundef nonnull align 8 dereferenceable(16) %51, i32 noundef %52)
  store ptr %53, ptr %13, align 8
  %54 = load ptr, ptr %13, align 8
  %55 = call noundef ptr @_ZNK5Klass17class_loader_dataEv(ptr noundef nonnull align 8 dereferenceable(196) %54)
  %56 = icmp eq ptr %55, null
  br i1 %56, label %57, label %67

57:                                               ; preds = %50
  %58 = load ptr, ptr %13, align 8
  %59 = load ptr, ptr %7, align 8
  call void @llvm.memcpy.p0.p0.i64(ptr align 8 %14, ptr align 8 %5, i64 8, i1 false)
  %60 = load ptr, ptr %8, align 8
  %61 = getelementptr inbounds %class.Handle, ptr %14, i32 0, i32 0
  %62 = load ptr, ptr %61, align 8
  call void @_ZN9vmClasses20resolve_shared_classEP13InstanceKlassP15ClassLoaderData6HandleP10JavaThread(ptr noundef %58, ptr noundef %59, ptr %62, ptr noundef %60)
  %63 = load ptr, ptr %8, align 8
  %64 = call noundef zeroext i1 @_ZNK12ThreadShadow21has_pending_exceptionEv(ptr noundef nonnull align 8 dereferenceable(28) %63)
  br i1 %64, label %65, label %66

65:                                               ; preds = %57
  br label %88

66:                                               ; preds = %57
  br label %67

67:                                               ; preds = %66, %50
  br label %68

68:                                               ; preds = %67
  %69 = load i32, ptr %12, align 4
  %70 = add nsw i32 %69, 1
  store i32 %70, ptr %12, align 4
  br label %45, !llvm.loop !6

71:                                               ; preds = %45
  %72 = load ptr, ptr %6, align 8
  %73 = load ptr, ptr %7, align 8
  call void @llvm.memcpy.p0.p0.i64(ptr align 8 %15, ptr align 8 %5, i64 8, i1 false)
  %74 = load ptr, ptr %8, align 8
  %75 = getelementptr inbounds %class.Handle, ptr %15, i32 0, i32 0
  %76 = load ptr, ptr %75, align 8
  call void @_ZN13InstanceKlass24restore_unshareable_infoEP15ClassLoaderData6HandleP12PackageEntryP10JavaThread(ptr noundef nonnull align 8 dereferenceable(464) %72, ptr noundef %73, ptr %76, ptr noundef null, ptr noundef %74)
  %77 = load ptr, ptr %6, align 8
  %78 = load ptr, ptr %7, align 8
  call void @_ZN16SystemDictionary22load_shared_class_miscEP13InstanceKlassP15ClassLoaderData(ptr noundef %77, ptr noundef %78)
  %79 = load ptr, ptr %7, align 8
  %80 = call noundef ptr @_ZNK15ClassLoaderData10dictionaryEv(ptr noundef nonnull align 8 dereferenceable(160) %79)
  store ptr %80, ptr %16, align 8
  %81 = load ptr, ptr %16, align 8
  %82 = load ptr, ptr %8, align 8
  %83 = load ptr, ptr %6, align 8
  %84 = call noundef ptr @_ZNK5Klass4nameEv(ptr noundef nonnull align 8 dereferenceable(196) %83)
  %85 = load ptr, ptr %6, align 8
  call void @_ZN10Dictionary9add_klassEP10JavaThreadP6SymbolP13InstanceKlass(ptr noundef nonnull align 8 dereferenceable(24) %81, ptr noundef %82, ptr noundef %84, ptr noundef %85)
  %86 = load ptr, ptr %6, align 8
  %87 = load ptr, ptr %8, align 8
  call void @_ZN13InstanceKlass16add_to_hierarchyEP10JavaThread(ptr noundef nonnull align 8 dereferenceable(464) %86, ptr noundef %87)
  br label %88

88:                                               ; preds = %71, %65, %40, %21
  ret void
}