; Function Attrs: mustprogress nounwind uwtable
define hidden void @_ZN9vmClasses20resolve_shared_classEP13InstanceKlassP15ClassLoaderData6HandleP10JavaThread(ptr noundef %0, ptr noundef %1, ptr %2, ptr noundef %3) local_unnamed_addr #0 align 2 {
  %5 = getelementptr inbounds i8, ptr %0, i64 152
  %6 = load ptr, ptr %5, align 8
  %.not = icmp eq ptr %6, null
  br i1 %.not, label %7, label %.loopexit

7:                                                ; preds = %4
  %8 = getelementptr inbounds i8, ptr %0, i64 120
  %9 = load ptr, ptr %8, align 8
  %.not34 = icmp eq ptr %9, null
  br i1 %.not34, label %17, label %10

10:                                               ; preds = %7
  %11 = getelementptr inbounds i8, ptr %9, i64 152
  %12 = load ptr, ptr %11, align 8
  %13 = icmp eq ptr %12, null
  br i1 %13, label %14, label %17

14:                                               ; preds = %10
  tail call void @_ZN9vmClasses20resolve_shared_classEP13InstanceKlassP15ClassLoaderData6HandleP10JavaThread(ptr noundef nonnull %9, ptr noundef %1, ptr %2, ptr noundef %3)
  %15 = getelementptr inbounds i8, ptr %3, i64 8
  %16 = load ptr, ptr %15, align 8
  %.not35 = icmp eq ptr %16, null
  br i1 %.not35, label %17, label %.loopexit

17:                                               ; preds = %14, %10, %7
  %18 = getelementptr inbounds i8, ptr %0, i64 416
  %19 = load ptr, ptr %18, align 8
  %20 = load i32, ptr %19, align 8
  %21 = icmp sgt i32 %20, 0
  br i1 %21, label %.lr.ph, label %._crit_edge

.lr.ph:                                           ; preds = %17
  %22 = getelementptr inbounds i8, ptr %19, i64 8
  %23 = getelementptr inbounds i8, ptr %3, i64 8
  br label %24

24:                                               ; preds = %.lr.ph, %33
  %25 = phi i32 [ %20, %.lr.ph ], [ %34, %33 ]
  %indvars.iv = phi i64 [ 0, %.lr.ph ], [ %indvars.iv.next, %33 ]
  %26 = getelementptr inbounds ptr, ptr %22, i64 %indvars.iv
  %27 = load ptr, ptr %26, align 8
  %28 = getelementptr inbounds i8, ptr %27, i64 152
  %29 = load ptr, ptr %28, align 8
  %30 = icmp eq ptr %29, null
  br i1 %30, label %31, label %33

31:                                               ; preds = %24
  tail call void @_ZN9vmClasses20resolve_shared_classEP13InstanceKlassP15ClassLoaderData6HandleP10JavaThread(ptr noundef nonnull %27, ptr noundef %1, ptr %2, ptr noundef %3)
  %32 = load ptr, ptr %23, align 8
  %.not36 = icmp eq ptr %32, null
  br i1 %.not36, label %._crit_edge39, label %.loopexit

._crit_edge39:                                    ; preds = %31
  %.pre = load i32, ptr %19, align 8
  br label %33

33:                                               ; preds = %._crit_edge39, %24
  %34 = phi i32 [ %.pre, %._crit_edge39 ], [ %25, %24 ]
  %indvars.iv.next = add nuw nsw i64 %indvars.iv, 1
  %35 = sext i32 %34 to i64
  %36 = icmp slt i64 %indvars.iv.next, %35
  br i1 %36, label %24, label %._crit_edge, !llvm.loop !6

._crit_edge:                                      ; preds = %33, %17
  tail call void @_ZN13InstanceKlass24restore_unshareable_infoEP15ClassLoaderData6HandleP12PackageEntryP10JavaThread(ptr noundef nonnull align 8 dereferenceable(464) %0, ptr noundef %1, ptr %2, ptr noundef null, ptr noundef %3) #5
  tail call void @_ZN16SystemDictionary22load_shared_class_miscEP13InstanceKlassP15ClassLoaderData(ptr noundef nonnull %0, ptr noundef %1) #5
  %37 = getelementptr inbounds i8, ptr %1, i64 88
  %38 = load ptr, ptr %37, align 8
  %39 = getelementptr inbounds i8, ptr %0, i64 24
  %40 = load ptr, ptr %39, align 8
  tail call void @_ZN10Dictionary9add_klassEP10JavaThreadP6SymbolP13InstanceKlass(ptr noundef nonnull align 8 dereferenceable(24) %38, ptr noundef %3, ptr noundef %40, ptr noundef nonnull %0) #5
  tail call void @_ZN13InstanceKlass16add_to_hierarchyEP10JavaThread(ptr noundef nonnull align 8 dereferenceable(464) %0, ptr noundef %3) #5
  br label %.loopexit

.loopexit:                                        ; preds = %31, %14, %4, %._crit_edge
  ret void
}